target datalayout = "e-m:e-p270:32:32-p271:32:32-p272:64:64-i64:64-i128:128-f80:128-n8:16:32:64-S128"
target triple = "x86_64-pc-linux-gnu"

@_ZN6G1NUMA5_instE = hidden global ptr null, align 8
@g_assert_poison = external global ptr, align 8
@.str = private unnamed_addr constant [35 x i8] c"src/hotspot/share/gc/g1/g1NUMA.cpp\00", align 1
@.str.4 = private unnamed_addr constant [35 x i8] c"guarantee(_inst == nullptr) failed\00", align 1
@.str.5 = private unnamed_addr constant [23 x i8] c"Should be called once.\00", align 1
@UseNUMA = external global i8, align 1
@_ZN6G1NUMAC1Ev = hidden unnamed_addr alias void (ptr), ptr @_ZN6G1NUMAC2Ev

; Function Attrs: mustprogress nounwind uwtable
define hidden noundef ptr @_ZN6G1NUMA6createEv() #1 align 2 {
  %1 = alloca i64, align 8
  %2 = alloca i8, align 1
  %3 = alloca i64, align 8
  br label %4

4:                                                ; preds = %0
  %5 = load ptr, ptr @_ZN6G1NUMA5_instE, align 8
  %6 = icmp eq ptr %5, null
  br i1 %6, label %9, label %7

7:                                                ; preds = %4
  %8 = load ptr, ptr @g_assert_poison, align 8
  store i8 88, ptr %8, align 1
  call void (ptr, i32, ptr, ptr, ...) @_Z15report_vm_errorPKciS0_S0_z(ptr noundef @.str, i32 noundef 47, ptr noundef @.str.4, ptr noundef @.str.5) #7
  unreachable

9:                                                ; preds = %4
  br label %10

10:                                               ; preds = %9
  store i64 56, ptr %3, align 8
  %11 = load i64, ptr %3, align 8
  store i64 %11, ptr %1, align 8
  store i8 5, ptr %2, align 1
  %12 = load i64, ptr %1, align 8
  %13 = load i8, ptr %2, align 1
  %14 = call noundef ptr @_Z12AllocateHeapm8MEMFLAGSN17AllocFailStrategy13AllocFailEnumE(i64 noundef %12, i8 noundef zeroext %13, i32 noundef 0) #8
  call void @_ZN6G1NUMAC1Ev(ptr noundef nonnull align 8 dereferenceable(56) %14)
  store ptr %14, ptr @_ZN6G1NUMA5_instE, align 8
  %15 = load ptr, ptr @_ZN6G1NUMA5_instE, align 8
  %16 = load i8, ptr @UseNUMA, align 1
  %17 = trunc i8 %16 to i1
  call void @_ZN6G1NUMA10initializeEb(ptr noundef nonnull align 8 dereferenceable(56) %15, i1 noundef zeroext %17)
  %18 = load ptr, ptr @_ZN6G1NUMA5_instE, align 8
  ret ptr %18
}