; Function Attrs: mustprogress nounwind uwtable
define hidden noundef ptr @_ZN6G1NUMA6createEv() local_unnamed_addr #1 align 2 {
  %1 = load ptr, ptr @_ZN6G1NUMA5_instE, align 8
  %2 = icmp eq ptr %1, null
  br i1 %2, label %5, label %3

3:                                                ; preds = %0
  %4 = load ptr, ptr @g_assert_poison, align 8
  store i8 88, ptr %4, align 1
  tail call void (ptr, i32, ptr, ptr, ...) @_Z15report_vm_errorPKciS0_S0_z(ptr noundef nonnull @.str, i32 noundef 47, ptr noundef nonnull @.str.4, ptr noundef nonnull @.str.5) #11
  unreachable

5:                                                ; preds = %0
  %6 = tail call noundef ptr @_Z12AllocateHeapm8MEMFLAGSN17AllocFailStrategy13AllocFailEnumE(i64 noundef 56, i8 noundef zeroext 5, i32 noundef 0) #12
  store ptr null, ptr %6, align 8
  %7 = getelementptr inbounds i8, ptr %6, i64 8
  store i32 0, ptr %7, align 8
  %8 = getelementptr inbounds i8, ptr %6, i64 16
  store ptr null, ptr %8, align 8
  %9 = getelementptr inbounds i8, ptr %6, i64 24
  store i32 0, ptr %9, align 8
  %10 = getelementptr inbounds i8, ptr %6, i64 32
  tail call void @llvm.memset.p0.i64(ptr noundef nonnull align 8 dereferenceable(24) %10, i8 0, i64 24, i1 false)
  store ptr %6, ptr @_ZN6G1NUMA5_instE, align 8
  %11 = load i8, ptr @UseNUMA, align 1
  %12 = trunc i8 %11 to i1
  tail call void @_ZN6G1NUMA10initializeEb(ptr noundef nonnull align 8 dereferenceable(56) %6, i1 noundef zeroext %12)
  %13 = load ptr, ptr @_ZN6G1NUMA5_instE, align 8
  ret ptr %13
}